; Function Attrs: mustprogress uwtable
define noundef zeroext i1 @_ZN11WelcomePage5eventEP6QEvent(ptr noundef nonnull align 8 dereferenceable(112) %0, ptr noundef %1) unnamed_addr #0 align 2 {
  %3 = getelementptr inbounds i8, ptr %1, i64 8
  %4 = load i16, ptr %3, align 8
  %cond = icmp eq i16 %4, 38
  br i1 %cond, label %5, label %6

5:                                                ; preds = %2
  tail call void @_ZN11WelcomePage17updateStyleSheetsEv(ptr noundef nonnull align 8 dereferenceable(112) %0)
  br label %6

6:                                                ; preds = %2, %5
  %7 = tail call noundef zeroext i1 @_ZN6QFrame5eventEP6QEvent(ptr noundef nonnull align 8 dereferenceable(40) %0, ptr noundef nonnull %1)
  ret i1 %7
}